; ModuleID = '34/3330.c'
source_filename = "34/3330.c"
target datalayout = "e-m:e-p270:32:32-p271:32:32-p272:64:64-i64:64-f80:128-n8:16:32:64-S128"
target triple = "x86_64-pc-linux-gnu"

@.str = private unnamed_addr constant [3 x i8] c"%d\00", align 1
@.str.1 = private unnamed_addr constant [9 x i8] c"%d/2=%d\0A\00", align 1
@.str.2 = private unnamed_addr constant [11 x i8] c"%d*3+1=%d\0A\00", align 1
@.str.3 = private unnamed_addr constant [4 x i8] c"End\00", align 1

; Function Attrs: noinline nounwind uwtable
define dso_local i32 @main() #0 {
  %1 = alloca i32, align 4
  %2 = alloca i32, align 4
  store i32 0, i32* %1, align 4
  %3 = call i32 (i8*, ...) @__isoc99_scanf(i8* getelementptr inbounds ([3 x i8], [3 x i8]* @.str, i64 0, i64 0), i32* %2)
  br label %4

4:                                                ; preds = %27, %0
  %5 = load i32, i32* %2, align 4
  %6 = icmp ne i32 %5, 1
  br i1 %6, label %7, label %28

7:                                                ; preds = %4
  %8 = load i32, i32* %2, align 4
  %9 = srem i32 %8, 2
  %10 = icmp eq i32 %9, 0
  br i1 %10, label %11, label %18

11:                                               ; preds = %7
  %12 = load i32, i32* %2, align 4
  %13 = sdiv i32 %12, 2
  store i32 %13, i32* %2, align 4
  %14 = load i32, i32* %2, align 4
  %15 = mul nsw i32 2, %14
  %16 = load i32, i32* %2, align 4
  %17 = call i32 (i8*, ...) @printf(i8* getelementptr inbounds ([9 x i8], [9 x i8]* @.str.1, i64 0, i64 0), i32 %15, i32 %16)
  br label %27

18:                                               ; preds = %7
  %19 = load i32, i32* %2, align 4
  %20 = mul nsw i32 3, %19
  %21 = add nsw i32 %20, 1
  store i32 %21, i32* %2, align 4
  %22 = load i32, i32* %2, align 4
  %23 = sub nsw i32 %22, 1
  %24 = sdiv i32 %23, 3
  %25 = load i32, i32* %2, align 4
  %26 = call i32 (i8*, ...) @printf(i8* getelementptr inbounds ([11 x i8], [11 x i8]* @.str.2, i64 0, i64 0), i32 %24, i32 %25)
  br label %27

27:                                               ; preds = %18, %11
  br label %4

28:                                               ; preds = %4
  %29 = call i32 (i8*, ...) @printf(i8* getelementptr inbounds ([4 x i8], [4 x i8]* @.str.3, i64 0, i64 0))
  ret i32 0
}

declare dso_local i32 @__isoc99_scanf(i8*, ...) #1

declare dso_local i32 @printf(i8*, ...) #1


!llvm.module.flags = !{!0}
!llvm.ident = !{!1}

!0 = !{i32 1, !"wchar_size", i32 4}
!1 = !{!"clang version 10.0.0-4ubuntu1 "}
